(dp0
S'date'
p1
cnumpy.core.multiarray
_reconstruct
p2
(cnumpy
ndarray
p3
(I0
tp4
S'b'
p5
tp6
Rp7
(I1
(I0
tp8
cnumpy
dtype
p9
(S'f8'
p10
I0
I1
tp11
Rp12
(I3
S'<'
p13
NNNI-1
I-1
I0
tp14
bI00
S''
p15
tp16
bsS'name'
p17
V\u4ea7\u91cf:\u9540\u950c\u677f(\u5e26):\u7d2f\u8ba1\u540c\u6bd4
p18
sS'value'
p19
g2
(g3
(I0
tp20
g5
tp21
Rp22
(I1
(I0
tp23
g12
I00
g15
tp24
bs.